(lp0
(iTournament
Tournament
p1
(dp2
S'name'
p3
S'acapulco'
p4
sS'periods'
p5
(lp6
(lp7
I2001
aI2019
aasba(iTournament
Tournament
p8
(dp9
g3
S'antalya'
p10
sg5
(lp11
(lp12
I2017
aI2019
aasba(iTournament
Tournament
p13
(dp14
g3
S'antwerp'
p15
sg5
(lp16
(lp17
I2016
aI2018
aasba(iTournament
Tournament
p18
(dp19
g3
S'atlanta'
p20
sg5
(lp21
(lp22
I2010
aI2019
aa(lp23
I2001
aasba(iTournament
Tournament
p24
(dp25
g3
S'auckland'
p26
sg5
(lp27
(lp28
I2001
aI2019
aasba(iTournament
Tournament
p29
(dp30
g3
S'australian-open'
p31
sg5
(lp32
(lp33
I2001
aI2019
aasba(iTournament
Tournament
p34
(dp35
g3
S'bangkok'
p36
sg5
(lp37
(lp38
I2003
aI2013
aasba(iTournament
Tournament
p39
(dp40
g3
S'barcelona'
p41
sg5
(lp42
(lp43
I2001
aI2019
aasba(iTournament
Tournament
p44
(dp45
g3
S'basel'
p46
sg5
(lp47
(lp48
I2001
aI2018
aasba(iTournament
Tournament
p49
(dp50
g3
S'bastad'
p51
sg5
(lp52
(lp53
I1999
aI2019
aasba(iTournament
Tournament
p54
(dp55
g3
S'beijing'
p56
sg5
(lp57
(lp58
I2004
aI2018
aasba(iTournament
Tournament
p59
(dp60
g3
S'belgrade'
p61
sg5
(lp62
(lp63
I2009
aI2012
aasba(iTournament
Tournament
p64
(dp65
g3
S'bogota'
p66
sg5
(lp67
(lp68
I2013
aI2015
aa(lp69
I2001
aasba(iTournament
Tournament
p70
(dp71
g3
S'brisbane'
p72
sg5
(lp73
(lp74
I2009
aI2019
aasba(iTournament
Tournament
p75
(dp76
g3
S'bucharest'
p77
sg5
(lp78
(lp79
I2001
aI2016
aasba(iTournament
Tournament
p80
(dp81
g3
S'budapest'
p82
sg5
(lp83
(lp84
I2017
aI2019
aasba(iTournament
Tournament
p85
(dp86
g3
S'buenos-aires'
p87
sg5
(lp88
(lp89
I2001
aI2019
aasba(iTournament
Tournament
p90
(dp91
g3
S'casablanca'
p92
sg5
(lp93
(lp94
I2001
aI2015
aasba(iTournament
Tournament
p95
(dp96
g3
S'chengdu'
p97
sg5
(lp98
(lp99
I2016
aI2018
aasba(iTournament
Tournament
p100
(dp101
g3
S'chennai'
p102
sg5
(lp103
(lp104
I2001
aI2017
aasba(iTournament
Tournament
p105
(dp106
g3
S'cincinnati'
p107
sg5
(lp108
(lp109
I2001
aI2019
aasba(iTournament
Tournament
p110
(dp111
g3
S'copenhagen'
p112
sg5
(lp113
(lp114
I2001
aI2003
aasba(iTournament
Tournament
p115
(dp116
g3
S'cordoba'
p117
sg5
(lp118
(lp119
I2019
aasba(iTournament
Tournament
p120
(dp121
g3
S'costa-do-sauipe'
p122
sg5
(lp123
(lp124
I2001
aI2011
aasba(iTournament
Tournament
p125
(dp126
g3
S'davis-cup-group-i'
p127
sg5
(lp128
(lp129
I2010
aI2018
aasba(iTournament
Tournament
p130
(dp131
g3
S'davis-cup-group-ii'
p132
sg5
(lp133
(lp134
I2010
aI2019
aasba(iTournament
Tournament
p135
(dp136
g3
S'davis-cup-group-iii'
p137
sg5
(lp138
(lp139
I2017
aI2019
aasba(iTournament
Tournament
p140
(dp141
g3
S'davis-cup-group-iv'
p142
sg5
(lp143
(lp144
I2017
aI2019
aasba(iTournament
Tournament
p145
(dp146
g3
S'davis-cup-world-group'
p147
sg5
(lp148
(lp149
I2001
aI2019
aasba(iTournament
Tournament
p150
(dp151
g3
S'delray-beach'
p152
sg5
(lp153
(lp154
I2001
aI2019
aasba(iTournament
Tournament
p155
(dp156
g3
S'doha'
p157
sg5
(lp158
(lp159
I2001
aI2019
aasba(iTournament
Tournament
p160
(dp161
g3
S'dubai'
p162
sg5
(lp163
(lp164
I2001
aI2019
aasba(iTournament
Tournament
p165
(dp166
g3
S'dusseldorf'
p167
sg5
(lp168
(lp169
I2001
aI2014
aasba(iTournament
Tournament
p170
(dp171
g3
S'eastbourne'
p172
sg5
(lp173
(lp174
I2017
aI2019
aa(lp175
I2009
aI2014
aasba(iTournament
Tournament
p176
(dp177
g3
S'estoril'
p178
sg5
(lp179
(lp180
I2001
aI2019
aasba(iTournament
Tournament
p181
(dp182
g3
S'finals-london'
p183
sg5
(lp184
(lp185
I2001
aI2018
aasba(iTournament
Tournament
p186
(dp187
g3
S'french-open'
p188
sg5
(lp189
(lp190
I2001
aI2019
aasba(iTournament
Tournament
p191
(dp192
g3
S'geneva'
p193
sg5
(lp194
(lp195
I2015
aI2019
aasba(iTournament
Tournament
p196
(dp197
g3
S'gstaad'
p198
sg5
(lp199
(lp200
I2001
aI2019
aasba(iTournament
Tournament
p201
(dp202
g3
S'halle'
p203
sg5
(lp204
(lp205
I2001
aI2019
aasba(iTournament
Tournament
p206
(dp207
g3
S'hamburg'
p208
sg5
(lp209
(lp210
I2001
aI2019
aasba(iTournament
Tournament
p211
(dp212
g3
S'hertogenbosch'
p213
sg5
(lp214
(lp215
I2001
aI2019
aasba(iTournament
Tournament
p216
(dp217
g3
S'hong-kong'
p218
sg5
(lp219
(lp220
I2011
aa(lp221
I2001
aI2002
aasba(iTournament
Tournament
p222
(dp223
g3
S'hopman-cup'
p224
sg5
(lp225
(lp226
I2006
aI2019
aasba(iTournament
Tournament
p227
(dp228
g3
S'houston'
p229
sg5
(lp230
(lp231
I2001
aI2019
aasba(iTournament
Tournament
p232
(dp233
g3
S'indianapolis'
p234
sg5
(lp235
(lp236
I2001
aI2009
aasba(iTournament
Tournament
p237
(dp238
g3
S'indian-wells'
p239
sg5
(lp240
(lp241
I2001
aI2019
aasba(iTournament
Tournament
p242
(dp243
g3
S'istanbul'
p244
sg5
(lp245
(lp246
I2015
aI2018
aasba(iTournament
Tournament
p247
(dp248
g3
S'johannesburg'
p249
sg5
(lp250
(lp251
I2009
aI2011
aasba(iTournament
Tournament
p252
(dp253
g3
S'kitzbuhel'
p254
sg5
(lp255
(lp256
I2011
aI2019
aa(lp257
I2001
aI2009
aasba(iTournament
Tournament
p258
(dp259
g3
S'kuala-lumpur'
p260
sg5
(lp261
(lp262
I2009
aI2015
aasba(iTournament
Tournament
p263
(dp264
g3
S'london'
p265
sg5
(lp266
(lp267
I2001
aI2019
aasba(iTournament
Tournament
p268
(dp269
g3
S'los-angeles'
p270
sg5
(lp271
(lp272
I2001
aI2012
aasba(iTournament
Tournament
p273
(dp274
g3
S'los-cabos'
p275
sg5
(lp276
(lp277
I2016
aI2019
aasba(iTournament
Tournament
p278
(dp279
g3
S'lyon'
p280
sg5
(lp281
(lp282
I2017
aI2019
aa(lp283
I2001
aI2009
aasba(iTournament
Tournament
p284
(dp285
g3
S'madrid'
p286
sg5
(lp287
(lp288
I2002
aI2019
aasba(iTournament
Tournament
p289
(dp290
g3
S'marrakech'
p291
sg5
(lp292
(lp293
I2016
aI2019
aasba(iTournament
Tournament
p294
(dp295
g3
S'marseille'
p296
sg5
(lp297
(lp298
I2001
aI2019
aasba(iTournament
Tournament
p299
(dp300
g3
S'memphis'
p301
sg5
(lp302
(lp303
I2001
aI2017
aasba(iTournament
Tournament
p304
(dp305
g3
S'metz'
p306
sg5
(lp307
(lp308
I2003
aI2018
aasba(iTournament
Tournament
p309
(dp310
g3
S'miami'
p311
sg5
(lp312
(lp313
I2001
aI2019
aasba(iTournament
Tournament
p314
(dp315
g3
S'monte-carlo'
p316
sg5
(lp317
(lp318
I2001
aI2019
aasba(iTournament
Tournament
p319
(dp320
g3
S'montpellier'
p321
sg5
(lp322
(lp323
I2012
aI2019
aa(lp324
I2010
aasba(iTournament
Tournament
p325
(dp326
g3
S'montreal'
p327
sg5
(lp328
(lp329
I2019
aa(lp330
I2017
aa(lp331
I2015
aa(lp332
I2013
aa(lp333
I2011
aa(lp334
I2009
aa(lp335
I2007
aa(lp336
I2005
aa(lp337
I2003
aa(lp338
I2001
aasba(iTournament
Tournament
p339
(dp340
g3
S'moscow'
p341
sg5
(lp342
(lp343
I2001
aI2018
aasba(iTournament
Tournament
p344
(dp345
g3
S'munich'
p346
sg5
(lp347
(lp348
I2001
aI2019
aasba(iTournament
Tournament
p349
(dp350
g3
S'new-haven'
p351
sg5
(lp352
(lp353
I2005
aI2010
aasba(iTournament
Tournament
p354
(dp355
g3
S'newport'
p356
sg5
(lp357
(lp358
I2000
aI2019
aasba(iTournament
Tournament
p359
(dp360
g3
S'new-york'
p361
sg5
(lp362
(lp363
I2018
aI2019
aasba(iTournament
Tournament
p364
(dp365
g3
S'next-gen-finals-milan'
p366
sg5
(lp367
(lp368
I2017
aI2018
aasba(iTournament
Tournament
p369
(dp370
g3
S'nice'
p371
sg5
(lp372
(lp373
I2010
aI2016
aasba(iTournament
Tournament
p374
(dp375
g3
S'nottingham'
p376
sg5
(lp377
(lp378
I2015
aI2016
aa(lp379
I2001
aI2008
aasba(iTournament
Tournament
p380
(dp381
g3
S'olympic-games'
p382
sg5
(lp383
(lp384
I2016
aa(lp385
I2012
aa(lp386
I2008
aa(lp387
I2004
aasba(iTournament
Tournament
p388
(dp389
g3
S'paris'
p390
sg5
(lp391
(lp392
I2001
aI2018
aasba(iTournament
Tournament
p393
(dp394
g3
S'pune'
p395
sg5
(lp396
(lp397
I2018
aI2019
aasba(iTournament
Tournament
p398
(dp399
g3
S'quito'
p400
sg5
(lp401
(lp402
I2015
aI2018
aasba(iTournament
Tournament
p403
(dp404
g3
S'rio-de-janeiro'
p405
sg5
(lp406
(lp407
I2014
aI2019
aasba(iTournament
Tournament
p408
(dp409
g3
S'rome'
p410
sg5
(lp411
(lp412
I2001
aI2019
aasba(iTournament
Tournament
p413
(dp414
g3
S'rotterdam'
p415
sg5
(lp416
(lp417
I2001
aI2019
aasba(iTournament
Tournament
p418
(dp419
g3
S'san-jose'
p420
sg5
(lp421
(lp422
I2001
aI2013
aasba(iTournament
Tournament
p423
(dp424
g3
S'santiago'
p425
sg5
(lp426
(lp427
I2010
aI2011
aasba(iTournament
Tournament
p428
(dp429
g3
S'sao-paulo'
p430
sg5
(lp431
(lp432
I2012
aI2019
aasba(iTournament
Tournament
p433
(dp434
g3
S'shanghai'
p435
sg5
(lp436
(lp437
I2009
aI2018
aa(lp438
I2003
aI2004
aa(lp439
I2001
aasba(iTournament
Tournament
p440
(dp441
g3
S'shenzhen'
p442
sg5
(lp443
(lp444
I2014
aI2018
aasba(iTournament
Tournament
p445
(dp446
g3
S'sofia'
p447
sg5
(lp448
(lp449
I2016
aI2019
aasba(iTournament
Tournament
p450
(dp451
g3
S'stockholm'
p452
sg5
(lp453
(lp454
I2001
aI2018
aasba(iTournament
Tournament
p455
(dp456
g3
S'st-petersburg'
p457
sg5
(lp458
(lp459
I2015
aI2018
aa(lp460
I2001
aI2013
aasba(iTournament
Tournament
p461
(dp462
g3
S'stuttgart'
p463
sg5
(lp464
(lp465
I2001
aI2019
aasba(iTournament
Tournament
p466
(dp467
g3
S'sydney'
p468
sg5
(lp469
(lp470
I2001
aI2019
aasba(iTournament
Tournament
p471
(dp472
g3
S'tokyo'
p473
sg5
(lp474
(lp475
I2001
aI2018
aasba(iTournament
Tournament
p476
(dp477
g3
S'toronto'
p478
sg5
(lp479
(lp480
I2018
aa(lp481
I2016
aa(lp482
I2014
aa(lp483
I2012
aa(lp484
I2010
aa(lp485
I2008
aa(lp486
I2006
aa(lp487
I2004
aa(lp488
I2002
aasba(iTournament
Tournament
p489
(dp490
g3
S'umag'
p491
sg5
(lp492
(lp493
I2001
aI2019
aasba(iTournament
Tournament
p494
(dp495
g3
S'us-open'
p496
sg5
(lp497
(lp498
I2001
aI2019
aasba(iTournament
Tournament
p499
(dp500
g3
S'valencia'
p501
sg5
(lp502
(lp503
I2003
aI2015
aasba(iTournament
Tournament
p504
(dp505
g3
S'vienna'
p506
sg5
(lp507
(lp508
I2001
aI2018
aasba(iTournament
Tournament
p509
(dp510
g3
S'vina-del-mar'
p511
sg5
(lp512
(lp513
I2012
aI2014
aa(lp514
I2001
aI2009
aasba(iTournament
Tournament
p515
(dp516
g3
S'washington'
p517
sg5
(lp518
(lp519
I2001
aI2019
aasba(iTournament
Tournament
p520
(dp521
g3
S'wimbledon'
p522
sg5
(lp523
(lp524
I2001
aI2019
aasba(iTournament
Tournament
p525
(dp526
g3
S'winston-salem'
p527
sg5
(lp528
(lp529
I2011
aI2019
aasba(iTournament
Tournament
p530
(dp531
g3
S'zagreb'
p532
sg5
(lp533
(lp534
I2006
aI2015
aasba.